target datalayout = "e-m:e-p270:32:32-p271:32:32-p272:64:64-i64:64-i128:128-f80:128-n8:16:32:64-S128"
target triple = "x86_64-pc-linux-gnu"

%struct.lzma_options_lzma = type { i32, ptr, i32, i32, i32, i32, i32, i32, i32, i32, i32, i32, i32, i32, i32, i32, i32, i32, i32, i32, i32, i32, ptr, ptr }

; Function Attrs: nounwind uwtable
define dso_local zeroext i1 @lzma_lzma_lclppb_decode(ptr noundef %0, i8 noundef zeroext %1) #0 {
  %3 = alloca i1, align 1
  %4 = alloca ptr, align 8
  %5 = alloca i8, align 1
  store ptr %0, ptr %4, align 8
  store i8 %1, ptr %5, align 1
  %6 = load i8, ptr %5, align 1
  %7 = zext i8 %6 to i32
  %8 = icmp sgt i32 %7, 224
  br i1 %8, label %9, label %10

9:                                                ; preds = %2
  store i1 true, ptr %3, align 1
  br label %47

10:                                               ; preds = %2
  %11 = load i8, ptr %5, align 1
  %12 = zext i8 %11 to i32
  %13 = sdiv i32 %12, 45
  %14 = load ptr, ptr %4, align 8
  %15 = getelementptr inbounds %struct.lzma_options_lzma, ptr %14, i32 0, i32 5
  store i32 %13, ptr %15, align 4
  %16 = load ptr, ptr %4, align 8
  %17 = getelementptr inbounds %struct.lzma_options_lzma, ptr %16, i32 0, i32 5
  %18 = load i32, ptr %17, align 4
  %19 = mul i32 %18, 9
  %20 = mul i32 %19, 5
  %21 = load i8, ptr %5, align 1
  %22 = zext i8 %21 to i32
  %23 = sub i32 %22, %20
  %24 = trunc i32 %23 to i8
  store i8 %24, ptr %5, align 1
  %25 = load i8, ptr %5, align 1
  %26 = zext i8 %25 to i32
  %27 = sdiv i32 %26, 9
  %28 = load ptr, ptr %4, align 8
  %29 = getelementptr inbounds %struct.lzma_options_lzma, ptr %28, i32 0, i32 4
  store i32 %27, ptr %29, align 8
  %30 = load i8, ptr %5, align 1
  %31 = zext i8 %30 to i32
  %32 = load ptr, ptr %4, align 8
  %33 = getelementptr inbounds %struct.lzma_options_lzma, ptr %32, i32 0, i32 4
  %34 = load i32, ptr %33, align 8
  %35 = mul i32 %34, 9
  %36 = sub i32 %31, %35
  %37 = load ptr, ptr %4, align 8
  %38 = getelementptr inbounds %struct.lzma_options_lzma, ptr %37, i32 0, i32 3
  store i32 %36, ptr %38, align 4
  %39 = load ptr, ptr %4, align 8
  %40 = getelementptr inbounds %struct.lzma_options_lzma, ptr %39, i32 0, i32 3
  %41 = load i32, ptr %40, align 4
  %42 = load ptr, ptr %4, align 8
  %43 = getelementptr inbounds %struct.lzma_options_lzma, ptr %42, i32 0, i32 4
  %44 = load i32, ptr %43, align 8
  %45 = add i32 %41, %44
  %46 = icmp ugt i32 %45, 4
  store i1 %46, ptr %3, align 1
  br label %47

47:                                               ; preds = %10, %9
  %48 = load i1, ptr %3, align 1
  ret i1 %48
}