; Function Attrs: mustprogress nofree norecurse nosync nounwind willreturn memory(argmem: write) uwtable
define dso_local zeroext i1 @lzma_lzma_lclppb_decode(ptr noundef writeonly captures(none) %0, i8 noundef zeroext %1) local_unnamed_addr #4 {
  %3 = icmp ugt i8 %1, -32
  br i1 %3, label %17, label %4

4:                                                ; preds = %2
  %5 = udiv i8 %1, 45
  %6 = zext nneg i8 %5 to i32
  %7 = getelementptr inbounds nuw i8, ptr %0, i64 28
  store i32 %6, ptr %7, align 4
  %8 = mul i8 %5, -45
  %9 = add i8 %8, %1
  %10 = zext i8 %9 to i32
  %11 = udiv i8 %9, 9
  %.zext = zext nneg i8 %11 to i32
  %12 = getelementptr inbounds nuw i8, ptr %0, i64 24
  store i32 %.zext, ptr %12, align 8
  %.neg = mul nsw i32 %.zext, -9
  %13 = add nsw i32 %.neg, %10
  %14 = getelementptr inbounds nuw i8, ptr %0, i64 20
  store i32 %13, ptr %14, align 4
  %15 = add nsw i32 %13, %.zext
  %16 = icmp ugt i32 %15, 4
  br label %17

17:                                               ; preds = %2, %4
  %.0 = phi i1 [ %16, %4 ], [ true, %2 ]
  ret i1 %.0
}